target datalayout = "e-m:e-p270:32:32-p271:32:32-p272:64:64-i64:64-i128:128-f80:128-n8:16:32:64-S128"
target triple = "x86_64-pc-linux-gnu"

%struct.ossl_method_store_st = type { ptr, ptr, ptr, ptr, i64, i32 }

@.str = private unnamed_addr constant [38 x i8] c"../openssl/crypto/property/property.c\00", align 1

; Function Attrs: inlinehint nounwind uwtable
define internal void @ossl_sa_ALGORITHM_free(ptr noundef %0) #3 {
  %2 = alloca ptr, align 8
  store ptr %0, ptr %2, align 8, !tbaa !25
  %3 = load ptr, ptr %2, align 8, !tbaa !25
  call void @ossl_sa_free(ptr noundef %3)
  ret void
}

; Function Attrs: inlinehint nounwind uwtable
define internal void @ossl_sa_ALGORITHM_doall_arg(ptr noundef %0, ptr noundef %1, ptr noundef %2) #3 {
  %4 = alloca ptr, align 8
  %5 = alloca ptr, align 8
  %6 = alloca ptr, align 8
  store ptr %0, ptr %4, align 8, !tbaa !25
  store ptr %1, ptr %5, align 8, !tbaa !3
  store ptr %2, ptr %6, align 8, !tbaa !3
  %7 = load ptr, ptr %4, align 8, !tbaa !25
  %8 = load ptr, ptr %5, align 8, !tbaa !3
  %9 = load ptr, ptr %6, align 8, !tbaa !3
  call void @ossl_sa_doall_arg(ptr noundef %7, ptr noundef %8, ptr noundef %9)
  ret void
}

; Function Attrs: nounwind uwtable
define void @ossl_method_store_free(ptr noundef %0) #0 {
  %2 = alloca ptr, align 8
  store ptr %0, ptr %2, align 8, !tbaa !16
  %3 = load ptr, ptr %2, align 8, !tbaa !16
  %4 = icmp ne ptr %3, null
  br i1 %4, label %5, label %26

5:                                                ; preds = %1
  %6 = load ptr, ptr %2, align 8, !tbaa !16
  %7 = getelementptr inbounds nuw %struct.ossl_method_store_st, ptr %6, i32 0, i32 1
  %8 = load ptr, ptr %7, align 8, !tbaa !22
  %9 = icmp ne ptr %8, null
  br i1 %9, label %10, label %15

10:                                               ; preds = %5
  %11 = load ptr, ptr %2, align 8, !tbaa !16
  %12 = getelementptr inbounds nuw %struct.ossl_method_store_st, ptr %11, i32 0, i32 1
  %13 = load ptr, ptr %12, align 8, !tbaa !22
  %14 = load ptr, ptr %2, align 8, !tbaa !16
  call void @ossl_sa_ALGORITHM_doall_arg(ptr noundef %13, ptr noundef @alg_cleanup, ptr noundef %14)
  br label %15

15:                                               ; preds = %10, %5
  %16 = load ptr, ptr %2, align 8, !tbaa !16
  %17 = getelementptr inbounds nuw %struct.ossl_method_store_st, ptr %16, i32 0, i32 1
  %18 = load ptr, ptr %17, align 8, !tbaa !22
  call void @ossl_sa_ALGORITHM_free(ptr noundef %18)
  %19 = load ptr, ptr %2, align 8, !tbaa !16
  %20 = getelementptr inbounds nuw %struct.ossl_method_store_st, ptr %19, i32 0, i32 2
  %21 = load ptr, ptr %20, align 8, !tbaa !23
  call void @CRYPTO_THREAD_lock_free(ptr noundef %21)
  %22 = load ptr, ptr %2, align 8, !tbaa !16
  %23 = getelementptr inbounds nuw %struct.ossl_method_store_st, ptr %22, i32 0, i32 3
  %24 = load ptr, ptr %23, align 8, !tbaa !24
  call void @CRYPTO_THREAD_lock_free(ptr noundef %24)
  %25 = load ptr, ptr %2, align 8, !tbaa !16
  call void @CRYPTO_free(ptr noundef %25, ptr noundef @.str, i32 noundef 268)
  br label %26

26:                                               ; preds = %15, %1
  ret void
}

; Function Attrs: inlinehint nounwind uwtable
define internal ptr @ossl_sa_ALGORITHM_new() #3 {
  %1 = call ptr @ossl_sa_new()
  ret ptr %1
}

; Function Attrs: nounwind uwtable
define ptr @ossl_method_store_new(ptr noundef %0) #0 {
  %2 = alloca ptr, align 8
  %3 = alloca ptr, align 8
  %4 = alloca ptr, align 8
  %5 = alloca i32, align 4
  store ptr %0, ptr %3, align 8, !tbaa !13
  call void @llvm.lifetime.start.p0(i64 8, ptr %4) #7
  %6 = call noalias ptr @CRYPTO_zalloc(i64 noundef 48, ptr noundef @.str, i32 noundef 247)
  store ptr %6, ptr %4, align 8, !tbaa !16
  %7 = load ptr, ptr %4, align 8, !tbaa !16
  %8 = icmp ne ptr %7, null
  br i1 %8, label %9, label %30

9:                                                ; preds = %1
  %10 = load ptr, ptr %3, align 8, !tbaa !13
  %11 = load ptr, ptr %4, align 8, !tbaa !16
  %12 = getelementptr inbounds nuw %struct.ossl_method_store_st, ptr %11, i32 0, i32 0
  store ptr %10, ptr %12, align 8, !tbaa !18
  %13 = call ptr @ossl_sa_ALGORITHM_new()
  %14 = load ptr, ptr %4, align 8, !tbaa !16
  %15 = getelementptr inbounds nuw %struct.ossl_method_store_st, ptr %14, i32 0, i32 1
  store ptr %13, ptr %15, align 8, !tbaa !22
  %16 = icmp eq ptr %13, null
  br i1 %16, label %27, label %17

17:                                               ; preds = %9
  %18 = call ptr @CRYPTO_THREAD_lock_new()
  %19 = load ptr, ptr %4, align 8, !tbaa !16
  %20 = getelementptr inbounds nuw %struct.ossl_method_store_st, ptr %19, i32 0, i32 2
  store ptr %18, ptr %20, align 8, !tbaa !23
  %21 = icmp eq ptr %18, null
  br i1 %21, label %27, label %22

22:                                               ; preds = %17
  %23 = call ptr @CRYPTO_THREAD_lock_new()
  %24 = load ptr, ptr %4, align 8, !tbaa !16
  %25 = getelementptr inbounds nuw %struct.ossl_method_store_st, ptr %24, i32 0, i32 3
  store ptr %23, ptr %25, align 8, !tbaa !24
  %26 = icmp eq ptr %23, null
  br i1 %26, label %27, label %29

27:                                               ; preds = %22, %17, %9
  %28 = load ptr, ptr %4, align 8, !tbaa !16
  call void @ossl_method_store_free(ptr noundef %28)
  store ptr null, ptr %2, align 8
  store i32 1, ptr %5, align 4
  br label %32

29:                                               ; preds = %22
  br label %30

30:                                               ; preds = %29, %1
  %31 = load ptr, ptr %4, align 8, !tbaa !16
  store ptr %31, ptr %2, align 8
  store i32 1, ptr %5, align 4
  br label %32

32:                                               ; preds = %30, %27
  call void @llvm.lifetime.end.p0(i64 8, ptr %4) #7
  %33 = load ptr, ptr %2, align 8
  ret ptr %33
}