; Function Attrs: nounwind uwtable
define ptr @ossl_method_store_new(ptr noundef %0) local_unnamed_addr #0 {
  %2 = tail call noalias ptr @CRYPTO_zalloc(i64 noundef 48, ptr noundef nonnull @.str, i32 noundef 247) #7
  %.not = icmp eq ptr %2, null
  br i1 %.not, label %22, label %3

3:                                                ; preds = %1
  store ptr %0, ptr %2, align 8, !tbaa !10
  %4 = tail call ptr @ossl_sa_new() #7
  %5 = getelementptr inbounds nuw i8, ptr %2, i64 8
  store ptr %4, ptr %5, align 8, !tbaa !15
  %6 = icmp eq ptr %4, null
  br i1 %6, label %ossl_method_store_free.exit, label %7

7:                                                ; preds = %3
  %8 = tail call ptr @CRYPTO_THREAD_lock_new() #7
  %9 = getelementptr inbounds nuw i8, ptr %2, i64 16
  store ptr %8, ptr %9, align 8, !tbaa !16
  %10 = icmp eq ptr %8, null
  br i1 %10, label %15, label %11

11:                                               ; preds = %7
  %12 = tail call ptr @CRYPTO_THREAD_lock_new() #7
  %13 = getelementptr inbounds nuw i8, ptr %2, i64 24
  store ptr %12, ptr %13, align 8, !tbaa !17
  %14 = icmp eq ptr %12, null
  br i1 %14, label %15, label %22

15:                                               ; preds = %7, %11
  %.pr = load ptr, ptr %5, align 8, !tbaa !15
  %.not9.i = icmp eq ptr %.pr, null
  br i1 %.not9.i, label %ossl_method_store_free.exit, label %16

16:                                               ; preds = %15
  tail call void @ossl_sa_doall_arg(ptr noundef nonnull %.pr, ptr noundef nonnull @alg_cleanup, ptr noundef nonnull %2) #7
  %.pre.i = load ptr, ptr %5, align 8, !tbaa !15
  br label %ossl_method_store_free.exit

ossl_method_store_free.exit:                      ; preds = %3, %15, %16
  %17 = phi ptr [ %.pre.i, %16 ], [ null, %15 ], [ null, %3 ]
  tail call void @ossl_sa_free(ptr noundef %17) #7
  %18 = getelementptr inbounds nuw i8, ptr %2, i64 16
  %19 = load ptr, ptr %18, align 8, !tbaa !16
  tail call void @CRYPTO_THREAD_lock_free(ptr noundef %19) #7
  %20 = getelementptr inbounds nuw i8, ptr %2, i64 24
  %21 = load ptr, ptr %20, align 8, !tbaa !17
  tail call void @CRYPTO_THREAD_lock_free(ptr noundef %21) #7
  tail call void @CRYPTO_free(ptr noundef nonnull %2, ptr noundef nonnull @.str, i32 noundef 268) #7
  br label %22

22:                                               ; preds = %1, %11, %ossl_method_store_free.exit
  %.0 = phi ptr [ null, %ossl_method_store_free.exit ], [ %2, %11 ], [ null, %1 ]
  ret ptr %.0
}